; Function Attrs: nounwind uwtable
define range(i32 -1, 2) i32 @H5Lis_registered(i32 noundef %0) local_unnamed_addr #0 {
  %2 = alloca i8, align 1
  %3 = alloca %struct.H5CX_node_t, align 8
  call void @llvm.lifetime.start.p0(i64 1, ptr nonnull %2) #7
  store i8 0, ptr %2, align 1, !tbaa !7
  call void @llvm.lifetime.start.p0(i64 480, ptr nonnull %3) #7
  call void @llvm.memset.p0.i64(ptr noundef nonnull align 8 dereferenceable(480) %3, i8 0, i64 480, i1 false)
  %4 = load i8, ptr @H5_libinit_g, align 1, !tbaa !7, !range !9, !noundef !10
  %5 = trunc nuw i8 %4 to i1
  %6 = load i8, ptr @H5_libterm_g, align 1, !range !9
  %7 = trunc nuw i8 %6 to i1
  %8 = select i1 %5, i1 true, i1 %7
  br i1 %8, label %16, label %9, !prof !11

9:                                                ; preds = %1
  %10 = tail call i32 @H5_init_library() #7
  %11 = icmp slt i32 %10, 0
  br i1 %11, label %12, label %._crit_edge, !prof !12

._crit_edge:                                      ; preds = %9
  %.pre = load i8, ptr @H5_libterm_g, align 1, !range !9
  br label %16

12:                                               ; preds = %9
  %13 = load i64, ptr @H5E_FUNC_g, align 8, !tbaa !3
  %14 = load i64, ptr @H5E_CANTINIT_g, align 8, !tbaa !3
  %15 = tail call i32 (ptr, ptr, i32, i64, i64, ptr, ...) @H5E_printf_stack(ptr noundef nonnull @.str, ptr noundef nonnull @__func__.H5Lis_registered, i32 noundef 1438, i64 noundef %13, i64 noundef %14, ptr noundef nonnull @.str.1) #7
  br label %.thread23

16:                                               ; preds = %._crit_edge, %1
  %17 = phi i8 [ %.pre, %._crit_edge ], [ %6, %1 ]
  %18 = load i8, ptr @H5L_init_g, align 1, !tbaa !7, !range !9, !noundef !10
  %19 = trunc nuw i8 %18 to i1
  %20 = trunc nuw i8 %17 to i1
  %21 = select i1 %19, i1 true, i1 %20
  br i1 %21, label %29, label %22, !prof !11

22:                                               ; preds = %16
  store i8 1, ptr @H5L_init_g, align 1, !tbaa !7
  %23 = tail call i32 @H5L__init_package() #7
  %24 = icmp slt i32 %23, 0
  br i1 %24, label %25, label %29, !prof !13

25:                                               ; preds = %22
  store i8 0, ptr @H5L_init_g, align 1, !tbaa !7
  %26 = load i64, ptr @H5E_FUNC_g, align 8, !tbaa !3
  %27 = load i64, ptr @H5E_CANTINIT_g, align 8, !tbaa !3
  %28 = tail call i32 (ptr, ptr, i32, i64, i64, ptr, ...) @H5E_printf_stack(ptr noundef nonnull @.str, ptr noundef nonnull @__func__.H5Lis_registered, i32 noundef 1438, i64 noundef %26, i64 noundef %27, ptr noundef nonnull @.str.2) #7
  br label %.thread23

29:                                               ; preds = %16, %22
  %30 = call i32 @H5CX_push(ptr noundef nonnull %3) #7
  %31 = icmp slt i32 %30, 0
  br i1 %31, label %32, label %36, !prof !12

32:                                               ; preds = %29
  %33 = load i64, ptr @H5E_FUNC_g, align 8, !tbaa !3
  %34 = load i64, ptr @H5E_CANTSET_g, align 8, !tbaa !3
  %35 = call i32 (ptr, ptr, i32, i64, i64, ptr, ...) @H5E_printf_stack(ptr noundef nonnull @.str, ptr noundef nonnull @__func__.H5Lis_registered, i32 noundef 1438, i64 noundef %33, i64 noundef %34, ptr noundef nonnull @.str.3) #7
  br label %.thread23

36:                                               ; preds = %29
  %37 = call i32 @H5E_clear_stack() #7
  %or.cond = icmp ugt i32 %0, 255
  br i1 %or.cond, label %38, label %42, !prof !19

38:                                               ; preds = %36
  %39 = load i64, ptr @H5E_ARGS_g, align 8, !tbaa !3
  %40 = load i64, ptr @H5E_BADVALUE_g, align 8, !tbaa !3
  %41 = call i32 (ptr, ptr, i32, i64, i64, ptr, ...) @H5E_printf_stack(ptr noundef nonnull @.str, ptr noundef nonnull @__func__.H5Lis_registered, i32 noundef 1442, i64 noundef %39, i64 noundef %40, ptr noundef nonnull @.str.72) #7
  br label %.thread29

42:                                               ; preds = %36
  %43 = call i32 @H5L_is_registered(i32 noundef %0, ptr noundef nonnull %2) #7
  %44 = icmp slt i32 %43, 0
  br i1 %44, label %45, label %50, !prof !19

45:                                               ; preds = %42
  %46 = load i64, ptr @H5E_LINK_g, align 8, !tbaa !3
  %47 = load i64, ptr @H5E_BADTYPE_g, align 8, !tbaa !3
  %48 = call i32 (ptr, ptr, i32, i64, i64, ptr, ...) @H5E_printf_stack(ptr noundef nonnull @.str, ptr noundef nonnull @__func__.H5Lis_registered, i32 noundef 1446, i64 noundef %46, i64 noundef %47, ptr noundef nonnull @.str.73) #7
  br label %.thread29

.thread29:                                        ; preds = %45, %38
  %49 = call i32 @H5CX_pop(i1 noundef zeroext true) #7
  br label %.thread23

50:                                               ; preds = %42
  %51 = load i8, ptr %2, align 1, !tbaa !7, !range !9, !noundef !10
  %52 = zext nneg i8 %51 to i32
  %53 = call i32 @H5CX_pop(i1 noundef zeroext true) #7
  br label %55

.thread23:                                        ; preds = %32, %25, %12, %.thread29
  %54 = call i32 @H5E_dump_api_stack() #7
  br label %55

55:                                               ; preds = %50, %.thread23
  %.0131826 = phi i32 [ -1, %.thread23 ], [ %52, %50 ]
  call void @llvm.lifetime.end.p0(i64 480, ptr nonnull %3) #7
  call void @llvm.lifetime.end.p0(i64 1, ptr nonnull %2) #7
  ret i32 %.0131826
}